
OpenBeaconMini.elf:     file format elf32-avr

Sections:
Idx Name          Size      VMA       LMA       File off  Algn
  0 .text         00000f78  00000000  00000000  000000b4  2**1
                  CONTENTS, ALLOC, LOAD, READONLY, CODE
  1 .data         0000000a  00800060  00000f78  0000102c  2**0
                  CONTENTS, ALLOC, LOAD, DATA
  2 .bss          00000059  0080006a  0080006a  00001036  2**0
                  ALLOC
  3 .eeprom       00000029  00810000  00810000  00001036  2**0
                  CONTENTS, ALLOC, LOAD, DATA
  4 .stab         000007bc  00000000  00000000  00001060  2**2
                  CONTENTS, READONLY, DEBUGGING
  5 .stabstr      00000084  00000000  00000000  0000181c  2**0
                  CONTENTS, READONLY, DEBUGGING
  6 .comment      00000011  00000000  00000000  000018a0  2**0
                  CONTENTS, READONLY

Disassembly of section .text:

00000000 <__vectors>:
   0:	23 c1       	rjmp	.+582    	; 0x248 <__ctors_end>
   2:	3d c1       	rjmp	.+634    	; 0x27e <__bad_interrupt>
   4:	3c c1       	rjmp	.+632    	; 0x27e <__bad_interrupt>
   6:	3b c1       	rjmp	.+630    	; 0x27e <__bad_interrupt>
   8:	3a c1       	rjmp	.+628    	; 0x27e <__bad_interrupt>
   a:	39 c1       	rjmp	.+626    	; 0x27e <__bad_interrupt>
   c:	38 c1       	rjmp	.+624    	; 0x27e <__bad_interrupt>
   e:	37 c1       	rjmp	.+622    	; 0x27e <__bad_interrupt>
  10:	36 c1       	rjmp	.+620    	; 0x27e <__bad_interrupt>
  12:	35 c1       	rjmp	.+618    	; 0x27e <__bad_interrupt>
  14:	ed c1       	rjmp	.+986    	; 0x3f0 <__vector_10>
  16:	33 c1       	rjmp	.+614    	; 0x27e <__bad_interrupt>
  18:	32 c1       	rjmp	.+612    	; 0x27e <__bad_interrupt>
  1a:	31 c1       	rjmp	.+610    	; 0x27e <__bad_interrupt>
  1c:	30 c1       	rjmp	.+608    	; 0x27e <__bad_interrupt>

0000001e <hell_tune>:
  1e:	fc b9 8c 55 35 17 00                                ...U5..

00000025 <fontchar>:
  25:	00 00 00 00 00 00 00 5f 00 00 00 07 00 07 00 14     ......._........
  35:	7f 14 7f 14 24 2a 7f 2a 12 23 13 08 64 62 36 49     ....$*.*.#..db6I
  45:	55 22 50 00 05 03 00 00 00 1c 22 41 00 00 41 22     U"P......."A..A"
  55:	1c 00 08 2a 1c 2a 08 08 08 3e 08 08 00 50 30 00     ...*.*...>...P0.
  65:	00 08 08 08 08 08 00 60 60 00 00 20 10 08 04 02     .......``.. ....
  75:	3e 51 49 45 3e 00 42 7f 40 00 42 61 51 49 46 21     >QIE>.B.@.BaQIF!
  85:	41 45 4b 31 18 14 12 7f 10 27 45 45 45 39 3c 4a     AEK1.....'EEE9<J
  95:	49 49 30 01 71 09 05 03 36 49 49 49 36 06 49 49     II0.q...6III6.II
  a5:	29 1e 00 36 36 00 00 00 56 36 00 00 00 08 14 22     )..66...V6....."
  b5:	41 14 14 14 14 14 41 22 14 08 00 02 01 51 09 06     A.....A".....Q..
  c5:	32 49 79 41 3e 7e 11 11 11 7e 7f 49 49 49 36 3e     2IyA>~...~.III6>
  d5:	41 41 41 22 7f 41 41 22 1c 7f 49 49 49 41 7f 09     AAA".AA"..IIIA..
  e5:	09 01 01 3e 41 41 51 32 7f 08 08 08 7f 00 41 7f     ...>AAQ2......A.
  f5:	41 00 20 40 41 3f 01 7f 08 14 22 41 7f 40 40 40     A. @A?...."A.@@@
 105:	40 7f 02 04 02 7f 7f 04 08 10 7f 3e 41 41 41 3e     @..........>AAA>
 115:	7f 09 09 09 06 3e 41 51 21 5e 7f 09 19 29 46 46     .....>AQ!^...)FF
 125:	49 49 49 31 01 01 7f 01 01 3f 40 40 40 3f 1f 20     III1.....?@@@?. 
 135:	40 20 1f 7f 20 18 20 7f 63 14 08 14 63 03 04 78     @ .. . .c...c..x
 145:	04 03 61 51 49 45 43 00 00 7f 41 41 02 04 08 10     ..aQIEC...AA....
 155:	20 41 41 7f 00 00 04 02 01 02 04 40 40 40 40 40      AA........@@@@@
 165:	00 01 02 04 00 20 54 54 54 78 7f 48 44 44 38 38     ..... TTTx.HDD88
 175:	44 44 44 20 38 44 44 48 7f 38 54 54 54 18 08 7e     DDD 8DDH.8TTT..~
 185:	09 01 02 08 14 54 54 3c 7f 08 04 04 78 00 44 7d     .....TT<....x.D}
 195:	40 00 20 40 44 3d 00 00 7f 10 28 44 00 41 7f 40     @. @D=....(D.A.@
 1a5:	00 7c 04 18 04 78 7c 08 04 04 78 38 44 44 44 38     .|...x|...x8DDD8
 1b5:	7c 14 14 14 08 08 14 14 18 7c 7c 08 04 04 08 48     |........||....H
 1c5:	54 54 54 20 04 3f 44 40 20 3c 40 40 20 7c 1c 20     TTT .?D@ <@@ |. 
 1d5:	40 20 1c 3c 40 30 40 3c 44 28 10 28 44 0c 50 50     @ .<@0@<D(.(D.PP
 1e5:	50 3c 44 64 54 4c 44                                P<DdTLD

000001ec <morsechar>:
 1ec:	ff 80 80 80 80 80 80 80 80 80 80 80 80 e0 80 94     ................
 1fc:	fc 7c 3c 1c 0c 04 84 c4 e4 f4 80 80 80 8c 80 32     .|<............2
 20c:	80 60 88 a8 90 40 28 d0 08 20 78 b0 48 e0 a0 f0     .`...@(.. x.H...
 21c:	68 d8 50 10 c0 30 18 70 98 b8 c8 80 80 80 80 80     h.P..0.p........
 22c:	80 60 88 a8 90 40 28 d0 08 20 78 b0 48 e0 a0 f0     .`...@(.. x.H...
 23c:	68 d8 50 10 c0 30 18 70 98 b8 c8 00                 h.P..0.p....

00000248 <__ctors_end>:
 248:	11 24       	eor	r1, r1
 24a:	1f be       	out	0x3f, r1	; 63
 24c:	cf e5       	ldi	r28, 0x5F	; 95
 24e:	d1 e0       	ldi	r29, 0x01	; 1
 250:	de bf       	out	0x3e, r29	; 62
 252:	cd bf       	out	0x3d, r28	; 61

00000254 <__do_copy_data>:
 254:	10 e0       	ldi	r17, 0x00	; 0
 256:	a0 e6       	ldi	r26, 0x60	; 96
 258:	b0 e0       	ldi	r27, 0x00	; 0
 25a:	e8 e7       	ldi	r30, 0x78	; 120
 25c:	ff e0       	ldi	r31, 0x0F	; 15
 25e:	02 c0       	rjmp	.+4      	; 0x264 <__do_copy_data+0x10>
 260:	05 90       	lpm	r0, Z+
 262:	0d 92       	st	X+, r0
 264:	aa 36       	cpi	r26, 0x6A	; 106
 266:	b1 07       	cpc	r27, r17
 268:	d9 f7       	brne	.-10     	; 0x260 <__do_copy_data+0xc>

0000026a <__do_clear_bss>:
 26a:	10 e0       	ldi	r17, 0x00	; 0
 26c:	aa e6       	ldi	r26, 0x6A	; 106
 26e:	b0 e0       	ldi	r27, 0x00	; 0
 270:	01 c0       	rjmp	.+2      	; 0x274 <.do_clear_bss_start>

00000272 <.do_clear_bss_loop>:
 272:	1d 92       	st	X+, r1

00000274 <.do_clear_bss_start>:
 274:	a3 3c       	cpi	r26, 0xC3	; 195
 276:	b1 07       	cpc	r27, r17
 278:	e1 f7       	brne	.-8      	; 0x272 <.do_clear_bss_loop>
 27a:	62 d1       	rcall	.+708    	; 0x540 <main>
 27c:	7b c6       	rjmp	.+3318   	; 0xf74 <_exit>

0000027e <__bad_interrupt>:
 27e:	c0 ce       	rjmp	.-640    	; 0x0 <__vectors>

00000280 <set_wpm>:
 280:	9b 01       	movw	r18, r22
 282:	ac 01       	movw	r20, r24
 284:	60 e8       	ldi	r22, 0x80	; 128
 286:	7f e4       	ldi	r23, 0x4F	; 79
 288:	82 e1       	ldi	r24, 0x12	; 18
 28a:	90 e0       	ldi	r25, 0x00	; 0
 28c:	42 d6       	rcall	.+3204   	; 0xf12 <__udivmodsi4>
 28e:	20 93 a6 00 	sts	0x00A6, r18
 292:	30 93 a7 00 	sts	0x00A7, r19
 296:	40 93 a8 00 	sts	0x00A8, r20
 29a:	50 93 a9 00 	sts	0x00A9, r21
 29e:	08 95       	ret

000002a0 <get_msg_delay>:
 2a0:	68 2f       	mov	r22, r24
 2a2:	70 e0       	ldi	r23, 0x00	; 0
 2a4:	80 e0       	ldi	r24, 0x00	; 0
 2a6:	90 e0       	ldi	r25, 0x00	; 0
 2a8:	24 e3       	ldi	r18, 0x34	; 52
 2aa:	3a ee       	ldi	r19, 0xEA	; 234
 2ac:	40 e0       	ldi	r20, 0x00	; 0
 2ae:	50 e0       	ldi	r21, 0x00	; 0
 2b0:	17 d6       	rcall	.+3118   	; 0xee0 <__mulsi3>
 2b2:	08 95       	ret

000002b4 <reset_buffer>:
 2b4:	cf 93       	push	r28
 2b6:	df 93       	push	r29
 2b8:	c4 e7       	ldi	r28, 0x74	; 116
 2ba:	d0 e0       	ldi	r29, 0x00	; 0
 2bc:	89 e2       	ldi	r24, 0x29	; 41
 2be:	fe 01       	movw	r30, r28
 2c0:	11 92       	st	Z+, r1
 2c2:	8a 95       	dec	r24
 2c4:	e9 f7       	brne	.-6      	; 0x2c0 <reset_buffer+0xc>
 2c6:	48 e2       	ldi	r20, 0x28	; 40
 2c8:	50 e0       	ldi	r21, 0x00	; 0
 2ca:	60 e0       	ldi	r22, 0x00	; 0
 2cc:	70 e0       	ldi	r23, 0x00	; 0
 2ce:	ce 01       	movw	r24, r28
 2d0:	42 d6       	rcall	.+3204   	; 0xf56 <__eerd_block_tn45>
 2d2:	d0 93 c2 00 	sts	0x00C2, r29
 2d6:	c0 93 c1 00 	sts	0x00C1, r28
 2da:	10 92 6f 00 	sts	0x006F, r1
 2de:	df 91       	pop	r29
 2e0:	cf 91       	pop	r28
 2e2:	08 95       	ret

000002e4 <init_tx>:
 2e4:	cf 92       	push	r12
 2e6:	df 92       	push	r13
 2e8:	ef 92       	push	r14
 2ea:	ff 92       	push	r15
 2ec:	e3 df       	rcall	.-58     	; 0x2b4 <reset_buffer>
 2ee:	c0 90 70 00 	lds	r12, 0x0070
 2f2:	d0 90 71 00 	lds	r13, 0x0071
 2f6:	e0 90 72 00 	lds	r14, 0x0072
 2fa:	f0 90 73 00 	lds	r15, 0x0073
 2fe:	60 91 b1 00 	lds	r22, 0x00B1
 302:	70 e0       	ldi	r23, 0x00	; 0
 304:	80 e0       	ldi	r24, 0x00	; 0
 306:	90 e0       	ldi	r25, 0x00	; 0
 308:	24 e3       	ldi	r18, 0x34	; 52
 30a:	3a ee       	ldi	r19, 0xEA	; 234
 30c:	40 e0       	ldi	r20, 0x00	; 0
 30e:	50 e0       	ldi	r21, 0x00	; 0
 310:	e7 d5       	rcall	.+3022   	; 0xee0 <__mulsi3>
 312:	6c 0d       	add	r22, r12
 314:	7d 1d       	adc	r23, r13
 316:	8e 1d       	adc	r24, r14
 318:	9f 1d       	adc	r25, r15
 31a:	60 93 9d 00 	sts	0x009D, r22
 31e:	70 93 9e 00 	sts	0x009E, r23
 322:	80 93 9f 00 	sts	0x009F, r24
 326:	90 93 a0 00 	sts	0x00A0, r25
 32a:	e0 91 aa 00 	lds	r30, 0x00AA
 32e:	f0 e0       	ldi	r31, 0x00	; 0
 330:	ee 0f       	add	r30, r30
 332:	ff 1f       	adc	r31, r31
 334:	e0 5a       	subi	r30, 0xA0	; 160
 336:	ff 4f       	sbci	r31, 0xFF	; 255
 338:	20 81       	ld	r18, Z
 33a:	31 81       	ldd	r19, Z+1	; 0x01
 33c:	30 93 b8 00 	sts	0x00B8, r19
 340:	20 93 b7 00 	sts	0x00B7, r18
 344:	40 e0       	ldi	r20, 0x00	; 0
 346:	50 e0       	ldi	r21, 0x00	; 0
 348:	60 e8       	ldi	r22, 0x80	; 128
 34a:	7f e4       	ldi	r23, 0x4F	; 79
 34c:	82 e1       	ldi	r24, 0x12	; 18
 34e:	90 e0       	ldi	r25, 0x00	; 0
 350:	e0 d5       	rcall	.+3008   	; 0xf12 <__udivmodsi4>
 352:	20 93 a6 00 	sts	0x00A6, r18
 356:	30 93 a7 00 	sts	0x00A7, r19
 35a:	40 93 a8 00 	sts	0x00A8, r20
 35e:	50 93 a9 00 	sts	0x00A9, r21
 362:	c0 92 b2 00 	sts	0x00B2, r12
 366:	d0 92 b3 00 	sts	0x00B3, r13
 36a:	e0 92 b4 00 	sts	0x00B4, r14
 36e:	f0 92 b5 00 	sts	0x00B5, r15
 372:	10 92 b0 00 	sts	0x00B0, r1
 376:	ff 90       	pop	r15
 378:	ef 90       	pop	r14
 37a:	df 90       	pop	r13
 37c:	cf 90       	pop	r12
 37e:	08 95       	ret

00000380 <debounce>:
 380:	cf 93       	push	r28
 382:	36 b3       	in	r19, 0x16	; 22
 384:	96 b3       	in	r25, 0x16	; 22
 386:	21 e0       	ldi	r18, 0x01	; 1
 388:	96 95       	lsr	r25
 38a:	91 70       	andi	r25, 0x01	; 1
 38c:	92 27       	eor	r25, r18
 38e:	c6 b3       	in	r28, 0x16	; 22
 390:	c2 fb       	bst	r28, 2
 392:	cc 27       	eor	r28, r28
 394:	c0 f9       	bld	r28, 0
 396:	c2 27       	eor	r28, r18
 398:	80 91 aa 00 	lds	r24, 0x00AA
 39c:	30 ff       	sbrs	r19, 0
 39e:	09 c0       	rjmp	.+18     	; 0x3b2 <debounce+0x32>
 3a0:	91 11       	cpse	r25, r1
 3a2:	10 c0       	rjmp	.+32     	; 0x3c4 <debounce+0x44>
 3a4:	88 23       	and	r24, r24
 3a6:	d1 f0       	breq	.+52     	; 0x3dc <debounce+0x5c>
 3a8:	83 30       	cpi	r24, 0x03	; 3
 3aa:	c1 f0       	breq	.+48     	; 0x3dc <debounce+0x5c>
 3ac:	10 92 aa 00 	sts	0x00AA, r1
 3b0:	14 c0       	rjmp	.+40     	; 0x3da <debounce+0x5a>
 3b2:	91 11       	cpse	r25, r1
 3b4:	0c c0       	rjmp	.+24     	; 0x3ce <debounce+0x4e>
 3b6:	81 30       	cpi	r24, 0x01	; 1
 3b8:	89 f0       	breq	.+34     	; 0x3dc <debounce+0x5c>
 3ba:	83 30       	cpi	r24, 0x03	; 3
 3bc:	79 f0       	breq	.+30     	; 0x3dc <debounce+0x5c>
 3be:	20 93 aa 00 	sts	0x00AA, r18
 3c2:	0b c0       	rjmp	.+22     	; 0x3da <debounce+0x5a>
 3c4:	82 50       	subi	r24, 0x02	; 2
 3c6:	82 30       	cpi	r24, 0x02	; 2
 3c8:	48 f0       	brcs	.+18     	; 0x3dc <debounce+0x5c>
 3ca:	82 e0       	ldi	r24, 0x02	; 2
 3cc:	04 c0       	rjmp	.+8      	; 0x3d6 <debounce+0x56>
 3ce:	83 50       	subi	r24, 0x03	; 3
 3d0:	82 30       	cpi	r24, 0x02	; 2
 3d2:	20 f0       	brcs	.+8      	; 0x3dc <debounce+0x5c>
 3d4:	84 e0       	ldi	r24, 0x04	; 4
 3d6:	80 93 aa 00 	sts	0x00AA, r24
 3da:	84 df       	rcall	.-248    	; 0x2e4 <init_tx>
 3dc:	c1 11       	cpse	r28, r1
 3de:	03 c0       	rjmp	.+6      	; 0x3e6 <debounce+0x66>
 3e0:	10 92 b1 00 	sts	0x00B1, r1
 3e4:	03 c0       	rjmp	.+6      	; 0x3ec <debounce+0x6c>
 3e6:	8a e0       	ldi	r24, 0x0A	; 10
 3e8:	80 93 b1 00 	sts	0x00B1, r24
 3ec:	cf 91       	pop	r28
 3ee:	08 95       	ret

000003f0 <__vector_10>:
 3f0:	1f 92       	push	r1
 3f2:	0f 92       	push	r0
 3f4:	0f b6       	in	r0, 0x3f	; 63
 3f6:	0f 92       	push	r0
 3f8:	11 24       	eor	r1, r1
 3fa:	2f 93       	push	r18
 3fc:	3f 93       	push	r19
 3fe:	4f 93       	push	r20
 400:	5f 93       	push	r21
 402:	6f 93       	push	r22
 404:	7f 93       	push	r23
 406:	8f 93       	push	r24
 408:	9f 93       	push	r25
 40a:	af 93       	push	r26
 40c:	bf 93       	push	r27
 40e:	ef 93       	push	r30
 410:	ff 93       	push	r31
 412:	80 91 a1 00 	lds	r24, 0x00A1
 416:	90 91 a2 00 	lds	r25, 0x00A2
 41a:	a0 91 a3 00 	lds	r26, 0x00A3
 41e:	b0 91 a4 00 	lds	r27, 0x00A4
 422:	01 96       	adiw	r24, 0x01	; 1
 424:	a1 1d       	adc	r26, r1
 426:	b1 1d       	adc	r27, r1
 428:	80 93 a1 00 	sts	0x00A1, r24
 42c:	90 93 a2 00 	sts	0x00A2, r25
 430:	a0 93 a3 00 	sts	0x00A3, r26
 434:	b0 93 a4 00 	sts	0x00A4, r27
 438:	a3 df       	rcall	.-186    	; 0x380 <debounce>
 43a:	ff 91       	pop	r31
 43c:	ef 91       	pop	r30
 43e:	bf 91       	pop	r27
 440:	af 91       	pop	r26
 442:	9f 91       	pop	r25
 444:	8f 91       	pop	r24
 446:	7f 91       	pop	r23
 448:	6f 91       	pop	r22
 44a:	5f 91       	pop	r21
 44c:	4f 91       	pop	r20
 44e:	3f 91       	pop	r19
 450:	2f 91       	pop	r18
 452:	0f 90       	pop	r0
 454:	0f be       	out	0x3f, r0	; 63
 456:	0f 90       	pop	r0
 458:	1f 90       	pop	r1
 45a:	18 95       	reti

0000045c <init_cwid>:
 45c:	0f 93       	push	r16
 45e:	1f 93       	push	r17
 460:	81 e0       	ldi	r24, 0x01	; 1
 462:	80 93 6a 00 	sts	0x006A, r24
 466:	80 91 aa 00 	lds	r24, 0x00AA
 46a:	80 93 af 00 	sts	0x00AF, r24
 46e:	80 91 b7 00 	lds	r24, 0x00B7
 472:	90 91 b8 00 	lds	r25, 0x00B8
 476:	90 93 c0 00 	sts	0x00C0, r25
 47a:	80 93 bf 00 	sts	0x00BF, r24
 47e:	80 91 6f 00 	lds	r24, 0x006F
 482:	80 93 6e 00 	sts	0x006E, r24
 486:	80 91 c1 00 	lds	r24, 0x00C1
 48a:	90 91 c2 00 	lds	r25, 0x00C2
 48e:	90 93 ba 00 	sts	0x00BA, r25
 492:	80 93 b9 00 	sts	0x00B9, r24
 496:	80 91 b2 00 	lds	r24, 0x00B2
 49a:	90 91 b3 00 	lds	r25, 0x00B3
 49e:	a0 91 b4 00 	lds	r26, 0x00B4
 4a2:	b0 91 b5 00 	lds	r27, 0x00B5
 4a6:	80 93 ab 00 	sts	0x00AB, r24
 4aa:	90 93 ac 00 	sts	0x00AC, r25
 4ae:	a0 93 ad 00 	sts	0x00AD, r26
 4b2:	b0 93 ae 00 	sts	0x00AE, r27
 4b6:	80 91 b0 00 	lds	r24, 0x00B0
 4ba:	80 93 a5 00 	sts	0x00A5, r24
 4be:	83 e0       	ldi	r24, 0x03	; 3
 4c0:	80 93 aa 00 	sts	0x00AA, r24
 4c4:	88 e9       	ldi	r24, 0x98	; 152
 4c6:	9a e3       	ldi	r25, 0x3A	; 58
 4c8:	90 93 b8 00 	sts	0x00B8, r25
 4cc:	80 93 b7 00 	sts	0x00B7, r24
 4d0:	80 e5       	ldi	r24, 0x50	; 80
 4d2:	90 e0       	ldi	r25, 0x00	; 0
 4d4:	a0 e0       	ldi	r26, 0x00	; 0
 4d6:	b0 e0       	ldi	r27, 0x00	; 0
 4d8:	80 93 a6 00 	sts	0x00A6, r24
 4dc:	90 93 a7 00 	sts	0x00A7, r25
 4e0:	a0 93 a8 00 	sts	0x00A8, r26
 4e4:	b0 93 a9 00 	sts	0x00A9, r27
 4e8:	e5 de       	rcall	.-566    	; 0x2b4 <reset_buffer>
 4ea:	23 e0       	ldi	r18, 0x03	; 3
 4ec:	30 e0       	ldi	r19, 0x00	; 0
 4ee:	40 e0       	ldi	r20, 0x00	; 0
 4f0:	50 e0       	ldi	r21, 0x00	; 0
 4f2:	60 91 a6 00 	lds	r22, 0x00A6
 4f6:	70 91 a7 00 	lds	r23, 0x00A7
 4fa:	80 91 a8 00 	lds	r24, 0x00A8
 4fe:	90 91 a9 00 	lds	r25, 0x00A9
 502:	ee d4       	rcall	.+2524   	; 0xee0 <__mulsi3>
 504:	00 91 70 00 	lds	r16, 0x0070
 508:	10 91 71 00 	lds	r17, 0x0071
 50c:	20 91 72 00 	lds	r18, 0x0072
 510:	30 91 73 00 	lds	r19, 0x0073
 514:	60 0f       	add	r22, r16
 516:	71 1f       	adc	r23, r17
 518:	82 1f       	adc	r24, r18
 51a:	93 1f       	adc	r25, r19
 51c:	60 93 b2 00 	sts	0x00B2, r22
 520:	70 93 b3 00 	sts	0x00B3, r23
 524:	80 93 b4 00 	sts	0x00B4, r24
 528:	90 93 b5 00 	sts	0x00B5, r25
 52c:	84 e0       	ldi	r24, 0x04	; 4
 52e:	80 93 b0 00 	sts	0x00B0, r24
 532:	1f 91       	pop	r17
 534:	0f 91       	pop	r16
 536:	08 95       	ret

00000538 <tx_on>:
 538:	c3 9a       	sbi	0x18, 3	; 24
 53a:	08 95       	ret

0000053c <tx_off>:
 53c:	c3 98       	cbi	0x18, 3	; 24
 53e:	08 95       	ret

00000540 <main>:
 540:	8a b5       	in	r24, 0x2a	; 42
 542:	82 60       	ori	r24, 0x02	; 2
 544:	8a bd       	out	0x2a, r24	; 42
 546:	82 e0       	ldi	r24, 0x02	; 2
 548:	83 bf       	out	0x33, r24	; 51
 54a:	8c e7       	ldi	r24, 0x7C	; 124
 54c:	89 bd       	out	0x29, r24	; 41
 54e:	89 b7       	in	r24, 0x39	; 57
 550:	80 61       	ori	r24, 0x10	; 16
 552:	89 bf       	out	0x39, r24	; 57
 554:	81 e0       	ldi	r24, 0x01	; 1
 556:	80 bf       	out	0x30, r24	; 48
 558:	80 e6       	ldi	r24, 0x60	; 96
 55a:	8c bd       	out	0x2c, r24	; 44
 55c:	1b bc       	out	0x2b, r1	; 43
 55e:	8f ef       	ldi	r24, 0xFF	; 255
 560:	8d bd       	out	0x2d, r24	; 45
 562:	96 e0       	ldi	r25, 0x06	; 6
 564:	97 bd       	out	0x27, r25	; 39
 566:	8b bd       	out	0x2b, r24	; 43
 568:	bc 9a       	sbi	0x17, 4	; 23
 56a:	c4 98       	cbi	0x18, 4	; 24
 56c:	bb 9a       	sbi	0x17, 3	; 23
 56e:	c3 9a       	sbi	0x18, 3	; 24
 570:	b8 98       	cbi	0x17, 0	; 23
 572:	c0 9a       	sbi	0x18, 0	; 24
 574:	b9 98       	cbi	0x17, 1	; 23
 576:	c1 9a       	sbi	0x18, 1	; 24
 578:	ba 98       	cbi	0x17, 2	; 23
 57a:	c2 9a       	sbi	0x18, 2	; 24
 57c:	84 e6       	ldi	r24, 0x64	; 100
 57e:	80 93 b6 00 	sts	0x00B6, r24
 582:	dc df       	rcall	.-72     	; 0x53c <tx_off>
 584:	e4 e7       	ldi	r30, 0x74	; 116
 586:	f0 e0       	ldi	r31, 0x00	; 0
 588:	89 e2       	ldi	r24, 0x29	; 41
 58a:	df 01       	movw	r26, r30
 58c:	1d 92       	st	X+, r1
 58e:	8a 95       	dec	r24
 590:	e9 f7       	brne	.-6      	; 0x58c <main+0x4c>
 592:	f0 93 c2 00 	sts	0x00C2, r31
 596:	e0 93 c1 00 	sts	0x00C1, r30
 59a:	10 92 aa 00 	sts	0x00AA, r1
 59e:	10 92 b0 00 	sts	0x00B0, r1
 5a2:	48 e2       	ldi	r20, 0x28	; 40
 5a4:	50 e0       	ldi	r21, 0x00	; 0
 5a6:	60 e0       	ldi	r22, 0x00	; 0
 5a8:	70 e0       	ldi	r23, 0x00	; 0
 5aa:	cf 01       	movw	r24, r30
 5ac:	d4 d4       	rcall	.+2472   	; 0xf56 <__eerd_block_tn45>
 5ae:	c0 90 70 00 	lds	r12, 0x0070
 5b2:	d0 90 71 00 	lds	r13, 0x0071
 5b6:	e0 90 72 00 	lds	r14, 0x0072
 5ba:	f0 90 73 00 	lds	r15, 0x0073
 5be:	60 91 b1 00 	lds	r22, 0x00B1
 5c2:	70 e0       	ldi	r23, 0x00	; 0
 5c4:	80 e0       	ldi	r24, 0x00	; 0
 5c6:	90 e0       	ldi	r25, 0x00	; 0
 5c8:	24 e3       	ldi	r18, 0x34	; 52
 5ca:	3a ee       	ldi	r19, 0xEA	; 234
 5cc:	40 e0       	ldi	r20, 0x00	; 0
 5ce:	50 e0       	ldi	r21, 0x00	; 0
 5d0:	87 d4       	rcall	.+2318   	; 0xee0 <__mulsi3>
 5d2:	6c 0d       	add	r22, r12
 5d4:	7d 1d       	adc	r23, r13
 5d6:	8e 1d       	adc	r24, r14
 5d8:	9f 1d       	adc	r25, r15
 5da:	60 93 9d 00 	sts	0x009D, r22
 5de:	70 93 9e 00 	sts	0x009E, r23
 5e2:	80 93 9f 00 	sts	0x009F, r24
 5e6:	90 93 a0 00 	sts	0x00A0, r25
 5ea:	b8 e0       	ldi	r27, 0x08	; 8
 5ec:	cb 0e       	add	r12, r27
 5ee:	b6 e2       	ldi	r27, 0x26	; 38
 5f0:	db 1e       	adc	r13, r27
 5f2:	b9 e0       	ldi	r27, 0x09	; 9
 5f4:	eb 1e       	adc	r14, r27
 5f6:	f1 1c       	adc	r15, r1
 5f8:	c0 92 bb 00 	sts	0x00BB, r12
 5fc:	d0 92 bc 00 	sts	0x00BC, r13
 600:	e0 92 bd 00 	sts	0x00BD, r14
 604:	f0 92 be 00 	sts	0x00BE, r15
 608:	6d de       	rcall	.-806    	; 0x2e4 <init_tx>
 60a:	78 94       	sei
 60c:	c8 e0       	ldi	r28, 0x08	; 8
 60e:	27 e0       	ldi	r18, 0x07	; 7
 610:	22 2e       	mov	r2, r18
 612:	d5 e0       	ldi	r29, 0x05	; 5
 614:	01 e0       	ldi	r16, 0x01	; 1
 616:	30 e8       	ldi	r19, 0x80	; 128
 618:	43 2e       	mov	r4, r19
 61a:	3f e4       	ldi	r19, 0x4F	; 79
 61c:	53 2e       	mov	r5, r19
 61e:	32 e1       	ldi	r19, 0x12	; 18
 620:	63 2e       	mov	r6, r19
 622:	71 2c       	mov	r7, r1
 624:	4d e0       	ldi	r20, 0x0D	; 13
 626:	34 2e       	mov	r3, r20
 628:	1a e0       	ldi	r17, 0x0A	; 10
 62a:	f8 94       	cli
 62c:	80 91 a1 00 	lds	r24, 0x00A1
 630:	90 91 a2 00 	lds	r25, 0x00A2
 634:	a0 91 a3 00 	lds	r26, 0x00A3
 638:	b0 91 a4 00 	lds	r27, 0x00A4
 63c:	80 93 70 00 	sts	0x0070, r24
 640:	90 93 71 00 	sts	0x0071, r25
 644:	a0 93 72 00 	sts	0x0072, r26
 648:	b0 93 73 00 	sts	0x0073, r27
 64c:	78 94       	sei
 64e:	40 91 70 00 	lds	r20, 0x0070
 652:	50 91 71 00 	lds	r21, 0x0071
 656:	60 91 72 00 	lds	r22, 0x0072
 65a:	70 91 73 00 	lds	r23, 0x0073
 65e:	80 91 bb 00 	lds	r24, 0x00BB
 662:	90 91 bc 00 	lds	r25, 0x00BC
 666:	a0 91 bd 00 	lds	r26, 0x00BD
 66a:	b0 91 be 00 	lds	r27, 0x00BE
 66e:	84 17       	cp	r24, r20
 670:	95 07       	cpc	r25, r21
 672:	a6 07       	cpc	r26, r22
 674:	b7 07       	cpc	r27, r23
 676:	e8 f4       	brcc	.+58     	; 0x6b2 <main+0x172>
 678:	80 91 6a 00 	lds	r24, 0x006A
 67c:	81 11       	cpse	r24, r1
 67e:	19 c0       	rjmp	.+50     	; 0x6b2 <main+0x172>
 680:	80 91 aa 00 	lds	r24, 0x00AA
 684:	83 30       	cpi	r24, 0x03	; 3
 686:	a9 f0       	breq	.+42     	; 0x6b2 <main+0x172>
 688:	e9 de       	rcall	.-558    	; 0x45c <init_cwid>
 68a:	80 91 70 00 	lds	r24, 0x0070
 68e:	90 91 71 00 	lds	r25, 0x0071
 692:	a0 91 72 00 	lds	r26, 0x0072
 696:	b0 91 73 00 	lds	r27, 0x0073
 69a:	88 5f       	subi	r24, 0xF8	; 248
 69c:	99 4d       	sbci	r25, 0xD9	; 217
 69e:	a6 4f       	sbci	r26, 0xF6	; 246
 6a0:	bf 4f       	sbci	r27, 0xFF	; 255
 6a2:	80 93 bb 00 	sts	0x00BB, r24
 6a6:	90 93 bc 00 	sts	0x00BC, r25
 6aa:	a0 93 bd 00 	sts	0x00BD, r26
 6ae:	b0 93 be 00 	sts	0x00BE, r27
 6b2:	80 91 aa 00 	lds	r24, 0x00AA
 6b6:	82 30       	cpi	r24, 0x02	; 2
 6b8:	09 f4       	brne	.+2      	; 0x6bc <main+0x17c>
 6ba:	47 c2       	rjmp	.+1166   	; 0xb4a <main+0x60a>
 6bc:	30 f0       	brcs	.+12     	; 0x6ca <main+0x18a>
 6be:	83 30       	cpi	r24, 0x03	; 3
 6c0:	21 f0       	breq	.+8      	; 0x6ca <main+0x18a>
 6c2:	84 30       	cpi	r24, 0x04	; 4
 6c4:	09 f0       	breq	.+2      	; 0x6c8 <main+0x188>
 6c6:	b1 cf       	rjmp	.-158    	; 0x62a <main+0xea>
 6c8:	a5 c3       	rjmp	.+1866   	; 0xe14 <main+0x8d4>
 6ca:	90 91 b0 00 	lds	r25, 0x00B0
 6ce:	93 30       	cpi	r25, 0x03	; 3
 6d0:	20 f4       	brcc	.+8      	; 0x6da <main+0x19a>
 6d2:	91 30       	cpi	r25, 0x01	; 1
 6d4:	08 f0       	brcs	.+2      	; 0x6d8 <main+0x198>
 6d6:	dc c1       	rjmp	.+952    	; 0xa90 <main+0x550>
 6d8:	07 c0       	rjmp	.+14     	; 0x6e8 <main+0x1a8>
 6da:	97 30       	cpi	r25, 0x07	; 7
 6dc:	08 f4       	brcc	.+2      	; 0x6e0 <main+0x1a0>
 6de:	27 c2       	rjmp	.+1102   	; 0xb2e <main+0x5ee>
 6e0:	9d 30       	cpi	r25, 0x0D	; 13
 6e2:	09 f0       	breq	.+2      	; 0x6e6 <main+0x1a6>
 6e4:	a2 cf       	rjmp	.-188    	; 0x62a <main+0xea>
 6e6:	d2 c1       	rjmp	.+932    	; 0xa8c <main+0x54c>
 6e8:	29 df       	rcall	.-430    	; 0x53c <tx_off>
 6ea:	60 91 b1 00 	lds	r22, 0x00B1
 6ee:	80 90 c1 00 	lds	r8, 0x00C1
 6f2:	90 90 c2 00 	lds	r9, 0x00C2
 6f6:	66 23       	and	r22, r22
 6f8:	e1 f1       	breq	.+120    	; 0x772 <main+0x232>
 6fa:	c0 90 70 00 	lds	r12, 0x0070
 6fe:	d0 90 71 00 	lds	r13, 0x0071
 702:	e0 90 72 00 	lds	r14, 0x0072
 706:	f0 90 73 00 	lds	r15, 0x0073
 70a:	80 91 9d 00 	lds	r24, 0x009D
 70e:	90 91 9e 00 	lds	r25, 0x009E
 712:	a0 91 9f 00 	lds	r26, 0x009F
 716:	b0 91 a0 00 	lds	r27, 0x00A0
 71a:	c8 16       	cp	r12, r24
 71c:	d9 06       	cpc	r13, r25
 71e:	ea 06       	cpc	r14, r26
 720:	fb 06       	cpc	r15, r27
 722:	38 f1       	brcs	.+78     	; 0x772 <main+0x232>
 724:	e4 e7       	ldi	r30, 0x74	; 116
 726:	8e 16       	cp	r8, r30
 728:	e0 e0       	ldi	r30, 0x00	; 0
 72a:	9e 06       	cpc	r9, r30
 72c:	11 f5       	brne	.+68     	; 0x772 <main+0x232>
 72e:	70 e0       	ldi	r23, 0x00	; 0
 730:	80 e0       	ldi	r24, 0x00	; 0
 732:	90 e0       	ldi	r25, 0x00	; 0
 734:	24 e3       	ldi	r18, 0x34	; 52
 736:	3a ee       	ldi	r19, 0xEA	; 234
 738:	40 e0       	ldi	r20, 0x00	; 0
 73a:	50 e0       	ldi	r21, 0x00	; 0
 73c:	d1 d3       	rcall	.+1954   	; 0xee0 <__mulsi3>
 73e:	6c 0d       	add	r22, r12
 740:	7d 1d       	adc	r23, r13
 742:	8e 1d       	adc	r24, r14
 744:	9f 1d       	adc	r25, r15
 746:	60 93 9d 00 	sts	0x009D, r22
 74a:	70 93 9e 00 	sts	0x009E, r23
 74e:	80 93 9f 00 	sts	0x009F, r24
 752:	90 93 a0 00 	sts	0x00A0, r25
 756:	27 e0       	ldi	r18, 0x07	; 7
 758:	30 e0       	ldi	r19, 0x00	; 0
 75a:	40 e0       	ldi	r20, 0x00	; 0
 75c:	50 e0       	ldi	r21, 0x00	; 0
 75e:	60 91 a6 00 	lds	r22, 0x00A6
 762:	70 91 a7 00 	lds	r23, 0x00A7
 766:	80 91 a8 00 	lds	r24, 0x00A8
 76a:	90 91 a9 00 	lds	r25, 0x00A9
 76e:	b8 d3       	rcall	.+1904   	; 0xee0 <__mulsi3>
 770:	2a c0       	rjmp	.+84     	; 0x7c6 <main+0x286>
 772:	f4 e7       	ldi	r31, 0x74	; 116
 774:	8f 16       	cp	r8, r31
 776:	f0 e0       	ldi	r31, 0x00	; 0
 778:	9f 06       	cpc	r9, r31
 77a:	a1 f5       	brne	.+104    	; 0x7e4 <main+0x2a4>
 77c:	80 91 6f 00 	lds	r24, 0x006F
 780:	81 11       	cpse	r24, r1
 782:	30 c0       	rjmp	.+96     	; 0x7e4 <main+0x2a4>
 784:	e0 91 74 00 	lds	r30, 0x0074
 788:	f0 e0       	ldi	r31, 0x00	; 0
 78a:	e4 53       	subi	r30, 0x34	; 52
 78c:	fe 4f       	sbci	r31, 0xFE	; 254
 78e:	e4 91       	lpm	r30, Z+
 790:	e0 93 6f 00 	sts	0x006F, r30
 794:	80 91 aa 00 	lds	r24, 0x00AA
 798:	83 30       	cpi	r24, 0x03	; 3
 79a:	21 f1       	breq	.+72     	; 0x7e4 <main+0x2a4>
 79c:	23 e0       	ldi	r18, 0x03	; 3
 79e:	30 e0       	ldi	r19, 0x00	; 0
 7a0:	40 e0       	ldi	r20, 0x00	; 0
 7a2:	50 e0       	ldi	r21, 0x00	; 0
 7a4:	60 91 a6 00 	lds	r22, 0x00A6
 7a8:	70 91 a7 00 	lds	r23, 0x00A7
 7ac:	80 91 a8 00 	lds	r24, 0x00A8
 7b0:	90 91 a9 00 	lds	r25, 0x00A9
 7b4:	95 d3       	rcall	.+1834   	; 0xee0 <__mulsi3>
 7b6:	c0 90 70 00 	lds	r12, 0x0070
 7ba:	d0 90 71 00 	lds	r13, 0x0071
 7be:	e0 90 72 00 	lds	r14, 0x0072
 7c2:	f0 90 73 00 	lds	r15, 0x0073
 7c6:	6c 0d       	add	r22, r12
 7c8:	7d 1d       	adc	r23, r13
 7ca:	8e 1d       	adc	r24, r14
 7cc:	9f 1d       	adc	r25, r15
 7ce:	60 93 b2 00 	sts	0x00B2, r22
 7d2:	70 93 b3 00 	sts	0x00B3, r23
 7d6:	80 93 b4 00 	sts	0x00B4, r24
 7da:	90 93 b5 00 	sts	0x00B5, r25
 7de:	30 92 b0 00 	sts	0x00B0, r3
 7e2:	23 cf       	rjmp	.-442    	; 0x62a <main+0xea>
 7e4:	b0 90 6f 00 	lds	r11, 0x006F
 7e8:	bb 20       	and	r11, r11
 7ea:	09 f4       	brne	.+2      	; 0x7ee <main+0x2ae>
 7ec:	95 c0       	rjmp	.+298    	; 0x918 <main+0x3d8>
 7ee:	c0 90 70 00 	lds	r12, 0x0070
 7f2:	d0 90 71 00 	lds	r13, 0x0071
 7f6:	e0 90 72 00 	lds	r14, 0x0072
 7fa:	f0 90 73 00 	lds	r15, 0x0073
 7fe:	80 e8       	ldi	r24, 0x80	; 128
 800:	b8 16       	cp	r11, r24
 802:	21 f0       	breq	.+8      	; 0x80c <main+0x2cc>
 804:	af ef       	ldi	r26, 0xFF	; 255
 806:	ba 12       	cpse	r11, r26
 808:	4e c0       	rjmp	.+156    	; 0x8a6 <main+0x366>
 80a:	1d c0       	rjmp	.+58     	; 0x846 <main+0x306>
 80c:	23 e0       	ldi	r18, 0x03	; 3
 80e:	30 e0       	ldi	r19, 0x00	; 0
 810:	40 e0       	ldi	r20, 0x00	; 0
 812:	50 e0       	ldi	r21, 0x00	; 0
 814:	60 91 a6 00 	lds	r22, 0x00A6
 818:	70 91 a7 00 	lds	r23, 0x00A7
 81c:	80 91 a8 00 	lds	r24, 0x00A8
 820:	90 91 a9 00 	lds	r25, 0x00A9
 824:	5d d3       	rcall	.+1722   	; 0xee0 <__mulsi3>
 826:	6c 0d       	add	r22, r12
 828:	7d 1d       	adc	r23, r13
 82a:	8e 1d       	adc	r24, r14
 82c:	9f 1d       	adc	r25, r15
 82e:	60 93 b2 00 	sts	0x00B2, r22
 832:	70 93 b3 00 	sts	0x00B3, r23
 836:	80 93 b4 00 	sts	0x00B4, r24
 83a:	90 93 b5 00 	sts	0x00B5, r25
 83e:	b4 e0       	ldi	r27, 0x04	; 4
 840:	b0 93 b0 00 	sts	0x00B0, r27
 844:	1b c0       	rjmp	.+54     	; 0x87c <main+0x33c>
 846:	27 e0       	ldi	r18, 0x07	; 7
 848:	30 e0       	ldi	r19, 0x00	; 0
 84a:	40 e0       	ldi	r20, 0x00	; 0
 84c:	50 e0       	ldi	r21, 0x00	; 0
 84e:	60 91 a6 00 	lds	r22, 0x00A6
 852:	70 91 a7 00 	lds	r23, 0x00A7
 856:	80 91 a8 00 	lds	r24, 0x00A8
 85a:	90 91 a9 00 	lds	r25, 0x00A9
 85e:	40 d3       	rcall	.+1664   	; 0xee0 <__mulsi3>
 860:	6c 0d       	add	r22, r12
 862:	7d 1d       	adc	r23, r13
 864:	8e 1d       	adc	r24, r14
 866:	9f 1d       	adc	r25, r15
 868:	60 93 b2 00 	sts	0x00B2, r22
 86c:	70 93 b3 00 	sts	0x00B3, r23
 870:	80 93 b4 00 	sts	0x00B4, r24
 874:	90 93 b5 00 	sts	0x00B5, r25
 878:	d0 93 b0 00 	sts	0x00B0, r29
 87c:	c4 01       	movw	r24, r8
 87e:	01 96       	adiw	r24, 0x01	; 1
 880:	90 93 c2 00 	sts	0x00C2, r25
 884:	80 93 c1 00 	sts	0x00C1, r24
 888:	d4 01       	movw	r26, r8
 88a:	11 96       	adiw	r26, 0x01	; 1
 88c:	ec 91       	ld	r30, X
 88e:	e1 11       	cpse	r30, r1
 890:	03 c0       	rjmp	.+6      	; 0x898 <main+0x358>
 892:	10 92 6f 00 	sts	0x006F, r1
 896:	c9 ce       	rjmp	.-622    	; 0x62a <main+0xea>
 898:	f0 e0       	ldi	r31, 0x00	; 0
 89a:	e4 53       	subi	r30, 0x34	; 52
 89c:	fe 4f       	sbci	r31, 0xFE	; 254
 89e:	e4 91       	lpm	r30, Z+
 8a0:	e0 93 6f 00 	sts	0x006F, r30
 8a4:	c2 ce       	rjmp	.-636    	; 0x62a <main+0xea>
 8a6:	b7 fe       	sbrs	r11, 7
 8a8:	1d c0       	rjmp	.+58     	; 0x8e4 <main+0x3a4>
 8aa:	23 e0       	ldi	r18, 0x03	; 3
 8ac:	30 e0       	ldi	r19, 0x00	; 0
 8ae:	40 e0       	ldi	r20, 0x00	; 0
 8b0:	50 e0       	ldi	r21, 0x00	; 0
 8b2:	60 91 a6 00 	lds	r22, 0x00A6
 8b6:	70 91 a7 00 	lds	r23, 0x00A7
 8ba:	80 91 a8 00 	lds	r24, 0x00A8
 8be:	90 91 a9 00 	lds	r25, 0x00A9
 8c2:	0e d3       	rcall	.+1564   	; 0xee0 <__mulsi3>
 8c4:	6c 0d       	add	r22, r12
 8c6:	7d 1d       	adc	r23, r13
 8c8:	8e 1d       	adc	r24, r14
 8ca:	9f 1d       	adc	r25, r15
 8cc:	60 93 b2 00 	sts	0x00B2, r22
 8d0:	70 93 b3 00 	sts	0x00B3, r23
 8d4:	80 93 b4 00 	sts	0x00B4, r24
 8d8:	90 93 b5 00 	sts	0x00B5, r25
 8dc:	b2 e0       	ldi	r27, 0x02	; 2
 8de:	b0 93 b0 00 	sts	0x00B0, r27
 8e2:	16 c0       	rjmp	.+44     	; 0x910 <main+0x3d0>
 8e4:	80 91 a6 00 	lds	r24, 0x00A6
 8e8:	90 91 a7 00 	lds	r25, 0x00A7
 8ec:	a0 91 a8 00 	lds	r26, 0x00A8
 8f0:	b0 91 a9 00 	lds	r27, 0x00A9
 8f4:	8c 0d       	add	r24, r12
 8f6:	9d 1d       	adc	r25, r13
 8f8:	ae 1d       	adc	r26, r14
 8fa:	bf 1d       	adc	r27, r15
 8fc:	80 93 b2 00 	sts	0x00B2, r24
 900:	90 93 b3 00 	sts	0x00B3, r25
 904:	a0 93 b4 00 	sts	0x00B4, r26
 908:	b0 93 b5 00 	sts	0x00B5, r27
 90c:	00 93 b0 00 	sts	0x00B0, r16
 910:	bb 0c       	add	r11, r11
 912:	b0 92 6f 00 	sts	0x006F, r11
 916:	89 ce       	rjmp	.-750    	; 0x62a <main+0xea>
 918:	80 91 6a 00 	lds	r24, 0x006A
 91c:	88 23       	and	r24, r24
 91e:	09 f4       	brne	.+2      	; 0x922 <main+0x3e2>
 920:	54 c0       	rjmp	.+168    	; 0x9ca <main+0x48a>
 922:	e0 91 af 00 	lds	r30, 0x00AF
 926:	e0 93 aa 00 	sts	0x00AA, r30
 92a:	f0 e0       	ldi	r31, 0x00	; 0
 92c:	ee 0f       	add	r30, r30
 92e:	ff 1f       	adc	r31, r31
 930:	e0 5a       	subi	r30, 0xA0	; 160
 932:	ff 4f       	sbci	r31, 0xFF	; 255
 934:	20 81       	ld	r18, Z
 936:	31 81       	ldd	r19, Z+1	; 0x01
 938:	30 93 b8 00 	sts	0x00B8, r19
 93c:	20 93 b7 00 	sts	0x00B7, r18
 940:	40 e0       	ldi	r20, 0x00	; 0
 942:	50 e0       	ldi	r21, 0x00	; 0
 944:	c3 01       	movw	r24, r6
 946:	b2 01       	movw	r22, r4
 948:	e4 d2       	rcall	.+1480   	; 0xf12 <__udivmodsi4>
 94a:	20 93 a6 00 	sts	0x00A6, r18
 94e:	30 93 a7 00 	sts	0x00A7, r19
 952:	40 93 a8 00 	sts	0x00A8, r20
 956:	50 93 a9 00 	sts	0x00A9, r21
 95a:	ac dc       	rcall	.-1704   	; 0x2b4 <reset_buffer>
 95c:	80 91 b9 00 	lds	r24, 0x00B9
 960:	90 91 ba 00 	lds	r25, 0x00BA
 964:	90 93 c2 00 	sts	0x00C2, r25
 968:	80 93 c1 00 	sts	0x00C1, r24
 96c:	80 91 6e 00 	lds	r24, 0x006E
 970:	80 93 6f 00 	sts	0x006F, r24
 974:	80 91 70 00 	lds	r24, 0x0070
 978:	90 91 71 00 	lds	r25, 0x0071
 97c:	a0 91 72 00 	lds	r26, 0x0072
 980:	b0 91 73 00 	lds	r27, 0x0073
 984:	88 5f       	subi	r24, 0xF8	; 248
 986:	99 4d       	sbci	r25, 0xD9	; 217
 988:	a6 4f       	sbci	r26, 0xF6	; 246
 98a:	bf 4f       	sbci	r27, 0xFF	; 255
 98c:	80 93 bb 00 	sts	0x00BB, r24
 990:	90 93 bc 00 	sts	0x00BC, r25
 994:	a0 93 bd 00 	sts	0x00BD, r26
 998:	b0 93 be 00 	sts	0x00BE, r27
 99c:	10 92 6a 00 	sts	0x006A, r1
 9a0:	80 91 ab 00 	lds	r24, 0x00AB
 9a4:	90 91 ac 00 	lds	r25, 0x00AC
 9a8:	a0 91 ad 00 	lds	r26, 0x00AD
 9ac:	b0 91 ae 00 	lds	r27, 0x00AE
 9b0:	80 93 b2 00 	sts	0x00B2, r24
 9b4:	90 93 b3 00 	sts	0x00B3, r25
 9b8:	a0 93 b4 00 	sts	0x00B4, r26
 9bc:	b0 93 b5 00 	sts	0x00B5, r27
 9c0:	80 91 a5 00 	lds	r24, 0x00A5
 9c4:	80 93 b0 00 	sts	0x00B0, r24
 9c8:	30 ce       	rjmp	.-928    	; 0x62a <main+0xea>
 9ca:	74 dc       	rcall	.-1816   	; 0x2b4 <reset_buffer>
 9cc:	80 91 b1 00 	lds	r24, 0x00B1
 9d0:	c0 90 70 00 	lds	r12, 0x0070
 9d4:	d0 90 71 00 	lds	r13, 0x0071
 9d8:	e0 90 72 00 	lds	r14, 0x0072
 9dc:	f0 90 73 00 	lds	r15, 0x0073
 9e0:	81 11       	cpse	r24, r1
 9e2:	1c c0       	rjmp	.+56     	; 0xa1c <main+0x4dc>
 9e4:	27 e0       	ldi	r18, 0x07	; 7
 9e6:	30 e0       	ldi	r19, 0x00	; 0
 9e8:	40 e0       	ldi	r20, 0x00	; 0
 9ea:	50 e0       	ldi	r21, 0x00	; 0
 9ec:	60 91 a6 00 	lds	r22, 0x00A6
 9f0:	70 91 a7 00 	lds	r23, 0x00A7
 9f4:	80 91 a8 00 	lds	r24, 0x00A8
 9f8:	90 91 a9 00 	lds	r25, 0x00A9
 9fc:	71 d2       	rcall	.+1250   	; 0xee0 <__mulsi3>
 9fe:	6c 0d       	add	r22, r12
 a00:	7d 1d       	adc	r23, r13
 a02:	8e 1d       	adc	r24, r14
 a04:	9f 1d       	adc	r25, r15
 a06:	60 93 b2 00 	sts	0x00B2, r22
 a0a:	70 93 b3 00 	sts	0x00B3, r23
 a0e:	80 93 b4 00 	sts	0x00B4, r24
 a12:	90 93 b5 00 	sts	0x00B5, r25
 a16:	d0 93 b0 00 	sts	0x00B0, r29
 a1a:	32 c0       	rjmp	.+100    	; 0xa80 <main+0x540>
 a1c:	80 90 9d 00 	lds	r8, 0x009D
 a20:	90 90 9e 00 	lds	r9, 0x009E
 a24:	a0 90 9f 00 	lds	r10, 0x009F
 a28:	b0 90 a0 00 	lds	r11, 0x00A0
 a2c:	27 e0       	ldi	r18, 0x07	; 7
 a2e:	30 e0       	ldi	r19, 0x00	; 0
 a30:	40 e0       	ldi	r20, 0x00	; 0
 a32:	50 e0       	ldi	r21, 0x00	; 0
 a34:	60 91 a6 00 	lds	r22, 0x00A6
 a38:	70 91 a7 00 	lds	r23, 0x00A7
 a3c:	80 91 a8 00 	lds	r24, 0x00A8
 a40:	90 91 a9 00 	lds	r25, 0x00A9
 a44:	4d d2       	rcall	.+1178   	; 0xee0 <__mulsi3>
 a46:	6c 0d       	add	r22, r12
 a48:	7d 1d       	adc	r23, r13
 a4a:	8e 1d       	adc	r24, r14
 a4c:	9f 1d       	adc	r25, r15
 a4e:	86 16       	cp	r8, r22
 a50:	97 06       	cpc	r9, r23
 a52:	a8 06       	cpc	r10, r24
 a54:	b9 06       	cpc	r11, r25
 a56:	48 f4       	brcc	.+18     	; 0xa6a <main+0x52a>
 a58:	60 93 b2 00 	sts	0x00B2, r22
 a5c:	70 93 b3 00 	sts	0x00B3, r23
 a60:	80 93 b4 00 	sts	0x00B4, r24
 a64:	90 93 b5 00 	sts	0x00B5, r25
 a68:	08 c0       	rjmp	.+16     	; 0xa7a <main+0x53a>
 a6a:	80 92 b2 00 	sts	0x00B2, r8
 a6e:	90 92 b3 00 	sts	0x00B3, r9
 a72:	a0 92 b4 00 	sts	0x00B4, r10
 a76:	b0 92 b5 00 	sts	0x00B5, r11
 a7a:	e6 e0       	ldi	r30, 0x06	; 6
 a7c:	e0 93 b0 00 	sts	0x00B0, r30
 a80:	80 91 aa 00 	lds	r24, 0x00AA
 a84:	83 30       	cpi	r24, 0x03	; 3
 a86:	09 f4       	brne	.+2      	; 0xa8a <main+0x54a>
 a88:	d0 cd       	rjmp	.-1120   	; 0x62a <main+0xea>
 a8a:	2a c1       	rjmp	.+596    	; 0xce0 <main+0x7a0>
 a8c:	1b bc       	out	0x2b, r1	; 43
 a8e:	53 c0       	rjmp	.+166    	; 0xb36 <main+0x5f6>
 a90:	81 30       	cpi	r24, 0x01	; 1
 a92:	49 f0       	breq	.+18     	; 0xaa6 <main+0x566>
 a94:	18 f0       	brcs	.+6      	; 0xa9c <main+0x55c>
 a96:	83 30       	cpi	r24, 0x03	; 3
 a98:	41 f4       	brne	.+16     	; 0xaaa <main+0x56a>
 a9a:	05 c0       	rjmp	.+10     	; 0xaa6 <main+0x566>
 a9c:	4d dd       	rcall	.-1382   	; 0x538 <tx_on>
 a9e:	80 91 b6 00 	lds	r24, 0x00B6
 aa2:	8b bd       	out	0x2b, r24	; 43
 aa4:	02 c0       	rjmp	.+4      	; 0xaaa <main+0x56a>
 aa6:	48 dd       	rcall	.-1392   	; 0x538 <tx_on>
 aa8:	1b bc       	out	0x2b, r1	; 43
 aaa:	40 91 70 00 	lds	r20, 0x0070
 aae:	50 91 71 00 	lds	r21, 0x0071
 ab2:	60 91 72 00 	lds	r22, 0x0072
 ab6:	70 91 73 00 	lds	r23, 0x0073
 aba:	80 91 b2 00 	lds	r24, 0x00B2
 abe:	90 91 b3 00 	lds	r25, 0x00B3
 ac2:	a0 91 b4 00 	lds	r26, 0x00B4
 ac6:	b0 91 b5 00 	lds	r27, 0x00B5
 aca:	84 17       	cp	r24, r20
 acc:	95 07       	cpc	r25, r21
 ace:	a6 07       	cpc	r26, r22
 ad0:	b7 07       	cpc	r27, r23
 ad2:	08 f0       	brcs	.+2      	; 0xad6 <main+0x596>
 ad4:	aa cd       	rjmp	.-1196   	; 0x62a <main+0xea>
 ad6:	80 91 aa 00 	lds	r24, 0x00AA
 ada:	81 30       	cpi	r24, 0x01	; 1
 adc:	31 f0       	breq	.+12     	; 0xaea <main+0x5aa>
 ade:	18 f0       	brcs	.+6      	; 0xae6 <main+0x5a6>
 ae0:	83 30       	cpi	r24, 0x03	; 3
 ae2:	29 f4       	brne	.+10     	; 0xaee <main+0x5ae>
 ae4:	02 c0       	rjmp	.+4      	; 0xaea <main+0x5aa>
 ae6:	28 dd       	rcall	.-1456   	; 0x538 <tx_on>
 ae8:	01 c0       	rjmp	.+2      	; 0xaec <main+0x5ac>
 aea:	28 dd       	rcall	.-1456   	; 0x53c <tx_off>
 aec:	1b bc       	out	0x2b, r1	; 43
 aee:	80 91 a6 00 	lds	r24, 0x00A6
 af2:	90 91 a7 00 	lds	r25, 0x00A7
 af6:	a0 91 a8 00 	lds	r26, 0x00A8
 afa:	b0 91 a9 00 	lds	r27, 0x00A9
 afe:	40 91 70 00 	lds	r20, 0x0070
 b02:	50 91 71 00 	lds	r21, 0x0071
 b06:	60 91 72 00 	lds	r22, 0x0072
 b0a:	70 91 73 00 	lds	r23, 0x0073
 b0e:	84 0f       	add	r24, r20
 b10:	95 1f       	adc	r25, r21
 b12:	a6 1f       	adc	r26, r22
 b14:	b7 1f       	adc	r27, r23
 b16:	80 93 b2 00 	sts	0x00B2, r24
 b1a:	90 93 b3 00 	sts	0x00B3, r25
 b1e:	a0 93 b4 00 	sts	0x00B4, r26
 b22:	b0 93 b5 00 	sts	0x00B5, r27
 b26:	f3 e0       	ldi	r31, 0x03	; 3
 b28:	f0 93 b0 00 	sts	0x00B0, r31
 b2c:	7e cd       	rjmp	.-1284   	; 0x62a <main+0xea>
 b2e:	1b bc       	out	0x2b, r1	; 43
 b30:	96 30       	cpi	r25, 0x06	; 6
 b32:	09 f4       	brne	.+2      	; 0xb36 <main+0x5f6>
 b34:	6d c1       	rjmp	.+730    	; 0xe10 <main+0x8d0>
 b36:	80 91 aa 00 	lds	r24, 0x00AA
 b3a:	81 30       	cpi	r24, 0x01	; 1
 b3c:	09 f4       	brne	.+2      	; 0xb40 <main+0x600>
 b3e:	68 c1       	rjmp	.+720    	; 0xe10 <main+0x8d0>
 b40:	83 30       	cpi	r24, 0x03	; 3
 b42:	09 f4       	brne	.+2      	; 0xb46 <main+0x606>
 b44:	65 c1       	rjmp	.+714    	; 0xe10 <main+0x8d0>
 b46:	f8 dc       	rcall	.-1552   	; 0x538 <tx_on>
 b48:	9d c1       	rjmp	.+826    	; 0xe84 <main+0x944>
 b4a:	80 91 b0 00 	lds	r24, 0x00B0
 b4e:	85 30       	cpi	r24, 0x05	; 5
 b50:	09 f4       	brne	.+2      	; 0xb54 <main+0x614>
 b52:	5d c1       	rjmp	.+698    	; 0xe0e <main+0x8ce>
 b54:	18 f4       	brcc	.+6      	; 0xb5c <main+0x61c>
 b56:	88 23       	and	r24, r24
 b58:	41 f0       	breq	.+16     	; 0xb6a <main+0x62a>
 b5a:	aa c1       	rjmp	.+852    	; 0xeb0 <main+0x970>
 b5c:	87 30       	cpi	r24, 0x07	; 7
 b5e:	09 f4       	brne	.+2      	; 0xb62 <main+0x622>
 b60:	56 c1       	rjmp	.+684    	; 0xe0e <main+0x8ce>
 b62:	88 30       	cpi	r24, 0x08	; 8
 b64:	09 f0       	breq	.+2      	; 0xb68 <main+0x628>
 b66:	a4 c1       	rjmp	.+840    	; 0xeb0 <main+0x970>
 b68:	06 c1       	rjmp	.+524    	; 0xd76 <main+0x836>
 b6a:	60 91 b1 00 	lds	r22, 0x00B1
 b6e:	66 23       	and	r22, r22
 b70:	49 f1       	breq	.+82     	; 0xbc4 <main+0x684>
 b72:	c0 90 70 00 	lds	r12, 0x0070
 b76:	d0 90 71 00 	lds	r13, 0x0071
 b7a:	e0 90 72 00 	lds	r14, 0x0072
 b7e:	f0 90 73 00 	lds	r15, 0x0073
 b82:	80 91 9d 00 	lds	r24, 0x009D
 b86:	90 91 9e 00 	lds	r25, 0x009E
 b8a:	a0 91 9f 00 	lds	r26, 0x009F
 b8e:	b0 91 a0 00 	lds	r27, 0x00A0
 b92:	c8 16       	cp	r12, r24
 b94:	d9 06       	cpc	r13, r25
 b96:	ea 06       	cpc	r14, r26
 b98:	fb 06       	cpc	r15, r27
 b9a:	a0 f0       	brcs	.+40     	; 0xbc4 <main+0x684>
 b9c:	70 e0       	ldi	r23, 0x00	; 0
 b9e:	80 e0       	ldi	r24, 0x00	; 0
 ba0:	90 e0       	ldi	r25, 0x00	; 0
 ba2:	24 e3       	ldi	r18, 0x34	; 52
 ba4:	3a ee       	ldi	r19, 0xEA	; 234
 ba6:	40 e0       	ldi	r20, 0x00	; 0
 ba8:	50 e0       	ldi	r21, 0x00	; 0
 baa:	9a d1       	rcall	.+820    	; 0xee0 <__mulsi3>
 bac:	6c 0d       	add	r22, r12
 bae:	7d 1d       	adc	r23, r13
 bb0:	8e 1d       	adc	r24, r14
 bb2:	9f 1d       	adc	r25, r15
 bb4:	60 93 9d 00 	sts	0x009D, r22
 bb8:	70 93 9e 00 	sts	0x009E, r23
 bbc:	80 93 9f 00 	sts	0x009F, r24
 bc0:	90 93 a0 00 	sts	0x00A0, r25
 bc4:	a0 91 c1 00 	lds	r26, 0x00C1
 bc8:	b0 91 c2 00 	lds	r27, 0x00C2
 bcc:	80 e0       	ldi	r24, 0x00	; 0
 bce:	a4 37       	cpi	r26, 0x74	; 116
 bd0:	b8 07       	cpc	r27, r24
 bd2:	a1 f4       	brne	.+40     	; 0xbfc <main+0x6bc>
 bd4:	80 91 6d 00 	lds	r24, 0x006D
 bd8:	81 11       	cpse	r24, r1
 bda:	10 c0       	rjmp	.+32     	; 0xbfc <main+0x6bc>
 bdc:	80 91 74 00 	lds	r24, 0x0074
 be0:	90 e0       	ldi	r25, 0x00	; 0
 be2:	80 97       	sbiw	r24, 0x20	; 32
 be4:	65 e0       	ldi	r22, 0x05	; 5
 be6:	70 e0       	ldi	r23, 0x00	; 0
 be8:	69 d1       	rcall	.+722    	; 0xebc <__mulhi3>
 bea:	8b 5d       	subi	r24, 0xDB	; 219
 bec:	9f 4f       	sbci	r25, 0xFF	; 255
 bee:	00 93 6c 00 	sts	0x006C, r16
 bf2:	fc 01       	movw	r30, r24
 bf4:	84 91       	lpm	r24, Z+
 bf6:	80 93 6d 00 	sts	0x006D, r24
 bfa:	ac c0       	rjmp	.+344    	; 0xd54 <main+0x814>
 bfc:	20 91 6c 00 	lds	r18, 0x006C
 c00:	8c 91       	ld	r24, X
 c02:	90 e0       	ldi	r25, 0x00	; 0
 c04:	80 97       	sbiw	r24, 0x20	; 32
 c06:	65 e0       	ldi	r22, 0x05	; 5
 c08:	70 e0       	ldi	r23, 0x00	; 0
 c0a:	58 d1       	rcall	.+688    	; 0xebc <__mulhi3>
 c0c:	82 0f       	add	r24, r18
 c0e:	91 1d       	adc	r25, r1
 c10:	8b 5d       	subi	r24, 0xDB	; 219
 c12:	9f 4f       	sbci	r25, 0xFF	; 255
 c14:	2f 5f       	subi	r18, 0xFF	; 255
 c16:	20 93 6c 00 	sts	0x006C, r18
 c1a:	fc 01       	movw	r30, r24
 c1c:	84 91       	lpm	r24, Z+
 c1e:	80 93 6d 00 	sts	0x006D, r24
 c22:	26 30       	cpi	r18, 0x06	; 6
 c24:	08 f4       	brcc	.+2      	; 0xc28 <main+0x6e8>
 c26:	96 c0       	rjmp	.+300    	; 0xd54 <main+0x814>
 c28:	10 92 6c 00 	sts	0x006C, r1
 c2c:	cd 01       	movw	r24, r26
 c2e:	01 96       	adiw	r24, 0x01	; 1
 c30:	90 93 c2 00 	sts	0x00C2, r25
 c34:	80 93 c1 00 	sts	0x00C1, r24
 c38:	11 96       	adiw	r26, 0x01	; 1
 c3a:	8c 91       	ld	r24, X
 c3c:	81 11       	cpse	r24, r1
 c3e:	66 c0       	rjmp	.+204    	; 0xd0c <main+0x7cc>
 c40:	39 db       	rcall	.-2446   	; 0x2b4 <reset_buffer>
 c42:	80 91 b1 00 	lds	r24, 0x00B1
 c46:	c0 90 70 00 	lds	r12, 0x0070
 c4a:	d0 90 71 00 	lds	r13, 0x0071
 c4e:	e0 90 72 00 	lds	r14, 0x0072
 c52:	f0 90 73 00 	lds	r15, 0x0073
 c56:	81 11       	cpse	r24, r1
 c58:	12 c0       	rjmp	.+36     	; 0xc7e <main+0x73e>
 c5a:	28 ec       	ldi	r18, 0xC8	; 200
 c5c:	30 e0       	ldi	r19, 0x00	; 0
 c5e:	40 e0       	ldi	r20, 0x00	; 0
 c60:	50 e0       	ldi	r21, 0x00	; 0
 c62:	60 91 a6 00 	lds	r22, 0x00A6
 c66:	70 91 a7 00 	lds	r23, 0x00A7
 c6a:	80 91 a8 00 	lds	r24, 0x00A8
 c6e:	90 91 a9 00 	lds	r25, 0x00A9
 c72:	36 d1       	rcall	.+620    	; 0xee0 <__mulsi3>
 c74:	6c 0d       	add	r22, r12
 c76:	7d 1d       	adc	r23, r13
 c78:	8e 1d       	adc	r24, r14
 c7a:	9f 1d       	adc	r25, r15
 c7c:	1e c0       	rjmp	.+60     	; 0xcba <main+0x77a>
 c7e:	80 90 9d 00 	lds	r8, 0x009D
 c82:	90 90 9e 00 	lds	r9, 0x009E
 c86:	a0 90 9f 00 	lds	r10, 0x009F
 c8a:	b0 90 a0 00 	lds	r11, 0x00A0
 c8e:	28 ec       	ldi	r18, 0xC8	; 200
 c90:	30 e0       	ldi	r19, 0x00	; 0
 c92:	40 e0       	ldi	r20, 0x00	; 0
 c94:	50 e0       	ldi	r21, 0x00	; 0
 c96:	60 91 a6 00 	lds	r22, 0x00A6
 c9a:	70 91 a7 00 	lds	r23, 0x00A7
 c9e:	80 91 a8 00 	lds	r24, 0x00A8
 ca2:	90 91 a9 00 	lds	r25, 0x00A9
 ca6:	1c d1       	rcall	.+568    	; 0xee0 <__mulsi3>
 ca8:	6c 0d       	add	r22, r12
 caa:	7d 1d       	adc	r23, r13
 cac:	8e 1d       	adc	r24, r14
 cae:	9f 1d       	adc	r25, r15
 cb0:	86 16       	cp	r8, r22
 cb2:	97 06       	cpc	r9, r23
 cb4:	a8 06       	cpc	r10, r24
 cb6:	b9 06       	cpc	r11, r25
 cb8:	48 f4       	brcc	.+18     	; 0xccc <main+0x78c>
 cba:	60 93 b2 00 	sts	0x00B2, r22
 cbe:	70 93 b3 00 	sts	0x00B3, r23
 cc2:	80 93 b4 00 	sts	0x00B4, r24
 cc6:	90 93 b5 00 	sts	0x00B5, r25
 cca:	08 c0       	rjmp	.+16     	; 0xcdc <main+0x79c>
 ccc:	80 92 b2 00 	sts	0x00B2, r8
 cd0:	90 92 b3 00 	sts	0x00B3, r9
 cd4:	a0 92 b4 00 	sts	0x00B4, r10
 cd8:	b0 92 b5 00 	sts	0x00B5, r11
 cdc:	d0 93 b0 00 	sts	0x00B0, r29
 ce0:	bd db       	rcall	.-2182   	; 0x45c <init_cwid>
 ce2:	80 91 70 00 	lds	r24, 0x0070
 ce6:	90 91 71 00 	lds	r25, 0x0071
 cea:	a0 91 72 00 	lds	r26, 0x0072
 cee:	b0 91 73 00 	lds	r27, 0x0073
 cf2:	88 5f       	subi	r24, 0xF8	; 248
 cf4:	99 4d       	sbci	r25, 0xD9	; 217
 cf6:	a6 4f       	sbci	r26, 0xF6	; 246
 cf8:	bf 4f       	sbci	r27, 0xFF	; 255
 cfa:	80 93 bb 00 	sts	0x00BB, r24
 cfe:	90 93 bc 00 	sts	0x00BC, r25
 d02:	a0 93 bd 00 	sts	0x00BD, r26
 d06:	b0 93 be 00 	sts	0x00BE, r27
 d0a:	8f cc       	rjmp	.-1762   	; 0x62a <main+0xea>
 d0c:	24 e1       	ldi	r18, 0x14	; 20
 d0e:	30 e0       	ldi	r19, 0x00	; 0
 d10:	40 e0       	ldi	r20, 0x00	; 0
 d12:	50 e0       	ldi	r21, 0x00	; 0
 d14:	60 91 a6 00 	lds	r22, 0x00A6
 d18:	70 91 a7 00 	lds	r23, 0x00A7
 d1c:	80 91 a8 00 	lds	r24, 0x00A8
 d20:	90 91 a9 00 	lds	r25, 0x00A9
 d24:	dd d0       	rcall	.+442    	; 0xee0 <__mulsi3>
 d26:	c0 90 70 00 	lds	r12, 0x0070
 d2a:	d0 90 71 00 	lds	r13, 0x0071
 d2e:	e0 90 72 00 	lds	r14, 0x0072
 d32:	f0 90 73 00 	lds	r15, 0x0073
 d36:	6c 0d       	add	r22, r12
 d38:	7d 1d       	adc	r23, r13
 d3a:	8e 1d       	adc	r24, r14
 d3c:	9f 1d       	adc	r25, r15
 d3e:	60 93 b2 00 	sts	0x00B2, r22
 d42:	70 93 b3 00 	sts	0x00B3, r23
 d46:	80 93 b4 00 	sts	0x00B4, r24
 d4a:	90 93 b5 00 	sts	0x00B5, r25
 d4e:	20 92 b0 00 	sts	0x00B0, r2
 d52:	6b cc       	rjmp	.-1834   	; 0x62a <main+0xea>
 d54:	80 91 a6 00 	lds	r24, 0x00A6
 d58:	90 91 a7 00 	lds	r25, 0x00A7
 d5c:	a0 91 a8 00 	lds	r26, 0x00A8
 d60:	b0 91 a9 00 	lds	r27, 0x00A9
 d64:	40 91 70 00 	lds	r20, 0x0070
 d68:	50 91 71 00 	lds	r21, 0x0071
 d6c:	60 91 72 00 	lds	r22, 0x0072
 d70:	70 91 73 00 	lds	r23, 0x0073
 d74:	3d c0       	rjmp	.+122    	; 0xdf0 <main+0x8b0>
 d76:	20 91 6b 00 	lds	r18, 0x006B
 d7a:	e2 2f       	mov	r30, r18
 d7c:	f0 e0       	ldi	r31, 0x00	; 0
 d7e:	e2 5e       	subi	r30, 0xE2	; 226
 d80:	ff 4f       	sbci	r31, 0xFF	; 255
 d82:	e4 91       	lpm	r30, Z+
 d84:	eb bd       	out	0x2b, r30	; 43
 d86:	80 91 6d 00 	lds	r24, 0x006D
 d8a:	90 e0       	ldi	r25, 0x00	; 0
 d8c:	02 c0       	rjmp	.+4      	; 0xd92 <main+0x852>
 d8e:	95 95       	asr	r25
 d90:	87 95       	ror	r24
 d92:	2a 95       	dec	r18
 d94:	e2 f7       	brpl	.-8      	; 0xd8e <main+0x84e>
 d96:	80 ff       	sbrs	r24, 0
 d98:	02 c0       	rjmp	.+4      	; 0xd9e <main+0x85e>
 d9a:	ce db       	rcall	.-2148   	; 0x538 <tx_on>
 d9c:	01 c0       	rjmp	.+2      	; 0xda0 <main+0x860>
 d9e:	ce db       	rcall	.-2148   	; 0x53c <tx_off>
 da0:	40 91 70 00 	lds	r20, 0x0070
 da4:	50 91 71 00 	lds	r21, 0x0071
 da8:	60 91 72 00 	lds	r22, 0x0072
 dac:	70 91 73 00 	lds	r23, 0x0073
 db0:	80 91 b2 00 	lds	r24, 0x00B2
 db4:	90 91 b3 00 	lds	r25, 0x00B3
 db8:	a0 91 b4 00 	lds	r26, 0x00B4
 dbc:	b0 91 b5 00 	lds	r27, 0x00B5
 dc0:	84 17       	cp	r24, r20
 dc2:	95 07       	cpc	r25, r21
 dc4:	a6 07       	cpc	r26, r22
 dc6:	b7 07       	cpc	r27, r23
 dc8:	08 f0       	brcs	.+2      	; 0xdcc <main+0x88c>
 dca:	2f cc       	rjmp	.-1954   	; 0x62a <main+0xea>
 dcc:	80 91 6b 00 	lds	r24, 0x006B
 dd0:	8f 5f       	subi	r24, 0xFF	; 255
 dd2:	80 93 6b 00 	sts	0x006B, r24
 dd6:	88 30       	cpi	r24, 0x08	; 8
 dd8:	18 f0       	brcs	.+6      	; 0xde0 <main+0x8a0>
 dda:	10 92 6b 00 	sts	0x006B, r1
 dde:	68 c0       	rjmp	.+208    	; 0xeb0 <main+0x970>
 de0:	80 91 a6 00 	lds	r24, 0x00A6
 de4:	90 91 a7 00 	lds	r25, 0x00A7
 de8:	a0 91 a8 00 	lds	r26, 0x00A8
 dec:	b0 91 a9 00 	lds	r27, 0x00A9
 df0:	84 0f       	add	r24, r20
 df2:	95 1f       	adc	r25, r21
 df4:	a6 1f       	adc	r26, r22
 df6:	b7 1f       	adc	r27, r23
 df8:	80 93 b2 00 	sts	0x00B2, r24
 dfc:	90 93 b3 00 	sts	0x00B3, r25
 e00:	a0 93 b4 00 	sts	0x00B4, r26
 e04:	b0 93 b5 00 	sts	0x00B5, r27
 e08:	c0 93 b0 00 	sts	0x00B0, r28
 e0c:	0e cc       	rjmp	.-2020   	; 0x62a <main+0xea>
 e0e:	1b bc       	out	0x2b, r1	; 43
 e10:	95 db       	rcall	.-2262   	; 0x53c <tx_off>
 e12:	38 c0       	rjmp	.+112    	; 0xe84 <main+0x944>
 e14:	80 91 b0 00 	lds	r24, 0x00B0
 e18:	88 23       	and	r24, r24
 e1a:	21 f0       	breq	.+8      	; 0xe24 <main+0x8e4>
 e1c:	8a 30       	cpi	r24, 0x0A	; 10
 e1e:	09 f0       	breq	.+2      	; 0xe22 <main+0x8e2>
 e20:	4a c0       	rjmp	.+148    	; 0xeb6 <main+0x976>
 e22:	28 c0       	rjmp	.+80     	; 0xe74 <main+0x934>
 e24:	8b db       	rcall	.-2282   	; 0x53c <tx_off>
 e26:	80 91 6b 00 	lds	r24, 0x006B
 e2a:	8f 5f       	subi	r24, 0xFF	; 255
 e2c:	88 30       	cpi	r24, 0x08	; 8
 e2e:	18 f4       	brcc	.+6      	; 0xe36 <main+0x8f6>
 e30:	80 93 6b 00 	sts	0x006B, r24
 e34:	02 c0       	rjmp	.+4      	; 0xe3a <main+0x8fa>
 e36:	10 92 6b 00 	sts	0x006B, r1
 e3a:	80 91 a6 00 	lds	r24, 0x00A6
 e3e:	90 91 a7 00 	lds	r25, 0x00A7
 e42:	a0 91 a8 00 	lds	r26, 0x00A8
 e46:	b0 91 a9 00 	lds	r27, 0x00A9
 e4a:	40 91 70 00 	lds	r20, 0x0070
 e4e:	50 91 71 00 	lds	r21, 0x0071
 e52:	60 91 72 00 	lds	r22, 0x0072
 e56:	70 91 73 00 	lds	r23, 0x0073
 e5a:	84 0f       	add	r24, r20
 e5c:	95 1f       	adc	r25, r21
 e5e:	a6 1f       	adc	r26, r22
 e60:	b7 1f       	adc	r27, r23
 e62:	80 93 b2 00 	sts	0x00B2, r24
 e66:	90 93 b3 00 	sts	0x00B3, r25
 e6a:	a0 93 b4 00 	sts	0x00B4, r26
 e6e:	b0 93 b5 00 	sts	0x00B5, r27
 e72:	21 c0       	rjmp	.+66     	; 0xeb6 <main+0x976>
 e74:	61 db       	rcall	.-2366   	; 0x538 <tx_on>
 e76:	e0 91 6b 00 	lds	r30, 0x006B
 e7a:	f0 e0       	ldi	r31, 0x00	; 0
 e7c:	e2 5e       	subi	r30, 0xE2	; 226
 e7e:	ff 4f       	sbci	r31, 0xFF	; 255
 e80:	e4 91       	lpm	r30, Z+
 e82:	eb bd       	out	0x2b, r30	; 43
 e84:	40 91 70 00 	lds	r20, 0x0070
 e88:	50 91 71 00 	lds	r21, 0x0071
 e8c:	60 91 72 00 	lds	r22, 0x0072
 e90:	70 91 73 00 	lds	r23, 0x0073
 e94:	80 91 b2 00 	lds	r24, 0x00B2
 e98:	90 91 b3 00 	lds	r25, 0x00B3
 e9c:	a0 91 b4 00 	lds	r26, 0x00B4
 ea0:	b0 91 b5 00 	lds	r27, 0x00B5
 ea4:	84 17       	cp	r24, r20
 ea6:	95 07       	cpc	r25, r21
 ea8:	a6 07       	cpc	r26, r22
 eaa:	b7 07       	cpc	r27, r23
 eac:	08 f0       	brcs	.+2      	; 0xeb0 <main+0x970>
 eae:	bd cb       	rjmp	.-2182   	; 0x62a <main+0xea>
 eb0:	10 92 b0 00 	sts	0x00B0, r1
 eb4:	ba cb       	rjmp	.-2188   	; 0x62a <main+0xea>
 eb6:	10 93 b0 00 	sts	0x00B0, r17
 eba:	b7 cb       	rjmp	.-2194   	; 0x62a <main+0xea>

00000ebc <__mulhi3>:
 ebc:	55 27       	eor	r21, r21
 ebe:	00 24       	eor	r0, r0

00000ec0 <__mulhi3_loop>:
 ec0:	80 ff       	sbrs	r24, 0
 ec2:	02 c0       	rjmp	.+4      	; 0xec8 <__mulhi3_skip1>
 ec4:	06 0e       	add	r0, r22
 ec6:	57 1f       	adc	r21, r23

00000ec8 <__mulhi3_skip1>:
 ec8:	66 0f       	add	r22, r22
 eca:	77 1f       	adc	r23, r23
 ecc:	61 15       	cp	r22, r1
 ece:	71 05       	cpc	r23, r1
 ed0:	21 f0       	breq	.+8      	; 0xeda <__mulhi3_exit>
 ed2:	96 95       	lsr	r25
 ed4:	87 95       	ror	r24
 ed6:	00 97       	sbiw	r24, 0x00	; 0
 ed8:	99 f7       	brne	.-26     	; 0xec0 <__mulhi3_loop>

00000eda <__mulhi3_exit>:
 eda:	95 2f       	mov	r25, r21
 edc:	80 2d       	mov	r24, r0
 ede:	08 95       	ret

00000ee0 <__mulsi3>:
 ee0:	ff 27       	eor	r31, r31
 ee2:	ee 27       	eor	r30, r30
 ee4:	bb 27       	eor	r27, r27
 ee6:	aa 27       	eor	r26, r26

00000ee8 <__mulsi3_loop>:
 ee8:	60 ff       	sbrs	r22, 0
 eea:	04 c0       	rjmp	.+8      	; 0xef4 <__mulsi3_skip1>
 eec:	a2 0f       	add	r26, r18
 eee:	b3 1f       	adc	r27, r19
 ef0:	e4 1f       	adc	r30, r20
 ef2:	f5 1f       	adc	r31, r21

00000ef4 <__mulsi3_skip1>:
 ef4:	22 0f       	add	r18, r18
 ef6:	33 1f       	adc	r19, r19
 ef8:	44 1f       	adc	r20, r20
 efa:	55 1f       	adc	r21, r21
 efc:	96 95       	lsr	r25
 efe:	87 95       	ror	r24
 f00:	77 95       	ror	r23
 f02:	67 95       	ror	r22
 f04:	89 f7       	brne	.-30     	; 0xee8 <__mulsi3_loop>
 f06:	00 97       	sbiw	r24, 0x00	; 0
 f08:	76 07       	cpc	r23, r22
 f0a:	71 f7       	brne	.-36     	; 0xee8 <__mulsi3_loop>

00000f0c <__mulsi3_exit>:
 f0c:	cf 01       	movw	r24, r30
 f0e:	bd 01       	movw	r22, r26
 f10:	08 95       	ret

00000f12 <__udivmodsi4>:
 f12:	a1 e2       	ldi	r26, 0x21	; 33
 f14:	1a 2e       	mov	r1, r26
 f16:	aa 1b       	sub	r26, r26
 f18:	bb 1b       	sub	r27, r27
 f1a:	fd 01       	movw	r30, r26
 f1c:	0d c0       	rjmp	.+26     	; 0xf38 <__udivmodsi4_ep>

00000f1e <__udivmodsi4_loop>:
 f1e:	aa 1f       	adc	r26, r26
 f20:	bb 1f       	adc	r27, r27
 f22:	ee 1f       	adc	r30, r30
 f24:	ff 1f       	adc	r31, r31
 f26:	a2 17       	cp	r26, r18
 f28:	b3 07       	cpc	r27, r19
 f2a:	e4 07       	cpc	r30, r20
 f2c:	f5 07       	cpc	r31, r21
 f2e:	20 f0       	brcs	.+8      	; 0xf38 <__udivmodsi4_ep>
 f30:	a2 1b       	sub	r26, r18
 f32:	b3 0b       	sbc	r27, r19
 f34:	e4 0b       	sbc	r30, r20
 f36:	f5 0b       	sbc	r31, r21

00000f38 <__udivmodsi4_ep>:
 f38:	66 1f       	adc	r22, r22
 f3a:	77 1f       	adc	r23, r23
 f3c:	88 1f       	adc	r24, r24
 f3e:	99 1f       	adc	r25, r25
 f40:	1a 94       	dec	r1
 f42:	69 f7       	brne	.-38     	; 0xf1e <__udivmodsi4_loop>
 f44:	60 95       	com	r22
 f46:	70 95       	com	r23
 f48:	80 95       	com	r24
 f4a:	90 95       	com	r25
 f4c:	9b 01       	movw	r18, r22
 f4e:	ac 01       	movw	r20, r24
 f50:	bd 01       	movw	r22, r26
 f52:	cf 01       	movw	r24, r30
 f54:	08 95       	ret

00000f56 <__eerd_block_tn45>:
 f56:	dc 01       	movw	r26, r24
 f58:	86 2f       	mov	r24, r22

00000f5a <__eerd_blraw_tn45>:
 f5a:	e8 2f       	mov	r30, r24
 f5c:	e1 99       	sbic	0x1c, 1	; 28
 f5e:	fe cf       	rjmp	.-4      	; 0xf5c <__eerd_blraw_tn45+0x2>
 f60:	1f ba       	out	0x1f, r1	; 31
 f62:	05 c0       	rjmp	.+10     	; 0xf6e <__eerd_blraw_tn45+0x14>
 f64:	ee bb       	out	0x1e, r30	; 30
 f66:	e0 9a       	sbi	0x1c, 0	; 28
 f68:	e3 95       	inc	r30
 f6a:	0d b2       	in	r0, 0x1d	; 29
 f6c:	0d 92       	st	X+, r0
 f6e:	41 50       	subi	r20, 0x01	; 1
 f70:	c8 f7       	brcc	.-14     	; 0xf64 <__eerd_blraw_tn45+0xa>
 f72:	08 95       	ret

00000f74 <_exit>:
 f74:	f8 94       	cli

00000f76 <__stop_program>:
 f76:	ff cf       	rjmp	.-2      	; 0xf76 <__stop_program>
